; Function Attrs: mustprogress uwtable
define hidden void @_ZN12solver_na2as3popEj(ptr noundef nonnull align 8 dereferenceable(120) %this, i32 noundef %n) unnamed_addr #9 align 2 {
entry:
  %cmp.not = icmp eq i32 %n, 0
  br i1 %cmp.not, label %if.end, label %land.lhs.true

land.lhs.true:                                    ; preds = %entry
  %m_scopes = getelementptr inbounds i8, ptr %this, i64 112
  %0 = load ptr, ptr %m_scopes, align 8
  %cmp.i = icmp eq ptr %0, null
  br i1 %cmp.i, label %if.end, label %_ZNK6vectorIjLb0EjE5emptyEv.exit

_ZNK6vectorIjLb0EjE5emptyEv.exit:                 ; preds = %land.lhs.true
  %arrayidx.i = getelementptr inbounds i8, ptr %0, i64 -4
  %1 = load i32, ptr %arrayidx.i, align 4
  %cmp3.i = icmp eq i32 %1, 0
  br i1 %cmp3.i, label %if.end, label %_ZNK6vectorIjLb0EjE4sizeEv.exit

_ZNK6vectorIjLb0EjE4sizeEv.exit:                  ; preds = %_ZNK6vectorIjLb0EjE5emptyEv.exit
  %.sroa.speculated = tail call i32 @llvm.umin.i32(i32 %1, i32 %n)
  %vtable = load ptr, ptr %this, align 8
  %vfn = getelementptr inbounds i8, ptr %vtable, i64 392
  %2 = load ptr, ptr %vfn, align 8
  tail call void %2(ptr noundef nonnull align 8 dereferenceable(120) %this, i32 noundef %.sroa.speculated)
  %sub = sub i32 %1, %.sroa.speculated
  %3 = load ptr, ptr %m_scopes, align 8
  %idxprom.i = zext i32 %sub to i64
  %arrayidx.i5 = getelementptr inbounds i32, ptr %3, i64 %idxprom.i
  %4 = load i32, ptr %arrayidx.i5, align 4
  %m_assumptions.i = getelementptr inbounds i8, ptr %this, i64 96
  %m_nodes.i.i = getelementptr inbounds i8, ptr %this, i64 104
  %5 = load ptr, ptr %m_nodes.i.i, align 8
  %cmp.i.i.i.i = icmp eq ptr %5, null
  br i1 %cmp.i.i.i.i, label %_ZN12solver_na2as19restore_assumptionsEj.exit, label %_ZN6vectorIP4exprLb0EjE3endEv.exit.i.i

_ZN6vectorIP4exprLb0EjE3endEv.exit.i.i:           ; preds = %_ZNK6vectorIjLb0EjE4sizeEv.exit
  %arrayidx.i.i.i.i = getelementptr inbounds i8, ptr %5, i64 -4
  %6 = load i32, ptr %arrayidx.i.i.i.i, align 4
  %7 = zext i32 %6 to i64
  %add.ptr.i.i.i = getelementptr inbounds ptr, ptr %5, i64 %7
  %cmp3.i.i.i = icmp ugt i32 %6, %4
  br i1 %cmp3.i.i.i, label %for.body.i.i.preheader.i, label %if.then.i.i.i

for.body.i.i.preheader.i:                         ; preds = %_ZN6vectorIP4exprLb0EjE3endEv.exit.i.i
  %idx.ext.i.i = zext i32 %4 to i64
  %add.ptr.i.i = getelementptr inbounds ptr, ptr %5, i64 %idx.ext.i.i
  br label %for.body.i.i.i

for.body.i.i.i:                                   ; preds = %_ZN15ref_vector_coreI4expr19ref_manager_wrapperIS0_11ast_managerEE7dec_refEPS0_.exit.i.i.i, %for.body.i.i.preheader.i
  %it.04.i.i.i = phi ptr [ %incdec.ptr.i.i.i, %_ZN15ref_vector_coreI4expr19ref_manager_wrapperIS0_11ast_managerEE7dec_refEPS0_.exit.i.i.i ], [ %add.ptr.i.i, %for.body.i.i.preheader.i ]
  %8 = load ptr, ptr %it.04.i.i.i, align 8
  %9 = load ptr, ptr %m_assumptions.i, align 8
  %tobool.not.i.i.i.i.i.i = icmp eq ptr %8, null
  br i1 %tobool.not.i.i.i.i.i.i, label %_ZN15ref_vector_coreI4expr19ref_manager_wrapperIS0_11ast_managerEE7dec_refEPS0_.exit.i.i.i, label %if.then.i.i.i.i.i.i

if.then.i.i.i.i.i.i:                              ; preds = %for.body.i.i.i
  %m_ref_count.i.i.i.i.i.i.i = getelementptr inbounds i8, ptr %8, i64 8
  %10 = load i32, ptr %m_ref_count.i.i.i.i.i.i.i, align 4
  %dec.i.i.i.i.i.i.i = add i32 %10, -1
  store i32 %dec.i.i.i.i.i.i.i, ptr %m_ref_count.i.i.i.i.i.i.i, align 4
  %cmp.i.i.i.i.i.i = icmp eq i32 %dec.i.i.i.i.i.i.i, 0
  br i1 %cmp.i.i.i.i.i.i, label %if.then2.i.i.i.i.i.i, label %_ZN15ref_vector_coreI4expr19ref_manager_wrapperIS0_11ast_managerEE7dec_refEPS0_.exit.i.i.i

if.then2.i.i.i.i.i.i:                             ; preds = %if.then.i.i.i.i.i.i
  tail call void @_ZN11ast_manager11delete_nodeEP3ast(ptr noundef nonnull align 8 dereferenceable(976) %9, ptr noundef nonnull %8)
  br label %_ZN15ref_vector_coreI4expr19ref_manager_wrapperIS0_11ast_managerEE7dec_refEPS0_.exit.i.i.i

_ZN15ref_vector_coreI4expr19ref_manager_wrapperIS0_11ast_managerEE7dec_refEPS0_.exit.i.i.i: ; preds = %if.then2.i.i.i.i.i.i, %if.then.i.i.i.i.i.i, %for.body.i.i.i
  %incdec.ptr.i.i.i = getelementptr inbounds i8, ptr %it.04.i.i.i, i64 8
  %cmp.i.i.i = icmp ult ptr %incdec.ptr.i.i.i, %add.ptr.i.i.i
  br i1 %cmp.i.i.i, label %for.body.i.i.i, label %_ZN15ref_vector_coreI4expr19ref_manager_wrapperIS0_11ast_managerEE13dec_range_refEPKPS0_S7_.exit.i.i, !llvm.loop !4

_ZN15ref_vector_coreI4expr19ref_manager_wrapperIS0_11ast_managerEE13dec_range_refEPKPS0_S7_.exit.i.i: ; preds = %_ZN15ref_vector_coreI4expr19ref_manager_wrapperIS0_11ast_managerEE7dec_refEPS0_.exit.i.i.i
  %.pre.i.i = load ptr, ptr %m_nodes.i.i, align 8
  %tobool.not.i.i.i = icmp eq ptr %.pre.i.i, null
  br i1 %tobool.not.i.i.i, label %_ZN12solver_na2as19restore_assumptionsEj.exit, label %if.then.i.i.i

if.then.i.i.i:                                    ; preds = %_ZN15ref_vector_coreI4expr19ref_manager_wrapperIS0_11ast_managerEE13dec_range_refEPKPS0_S7_.exit.i.i, %_ZN6vectorIP4exprLb0EjE3endEv.exit.i.i
  %11 = phi ptr [ %.pre.i.i, %_ZN15ref_vector_coreI4expr19ref_manager_wrapperIS0_11ast_managerEE13dec_range_refEPKPS0_S7_.exit.i.i ], [ %5, %_ZN6vectorIP4exprLb0EjE3endEv.exit.i.i ]
  %arrayidx.i.i.i = getelementptr inbounds i8, ptr %11, i64 -4
  store i32 %4, ptr %arrayidx.i.i.i, align 4
  br label %_ZN12solver_na2as19restore_assumptionsEj.exit

_ZN12solver_na2as19restore_assumptionsEj.exit:    ; preds = %_ZNK6vectorIjLb0EjE4sizeEv.exit, %_ZN15ref_vector_coreI4expr19ref_manager_wrapperIS0_11ast_managerEE13dec_range_refEPKPS0_S7_.exit.i.i, %if.then.i.i.i
  %12 = load ptr, ptr %m_scopes, align 8
  %tobool.not.i = icmp eq ptr %12, null
  br i1 %tobool.not.i, label %if.end, label %if.then.i

if.then.i:                                        ; preds = %_ZN12solver_na2as19restore_assumptionsEj.exit
  %arrayidx.i6 = getelementptr inbounds i8, ptr %12, i64 -4
  store i32 %sub, ptr %arrayidx.i6, align 4
  br label %if.end

if.end:                                           ; preds = %land.lhs.true, %if.then.i, %_ZN12solver_na2as19restore_assumptionsEj.exit, %_ZNK6vectorIjLb0EjE5emptyEv.exit, %entry
  ret void
}